                              1 ;;; gcc for m6809 : Mar 17 2019 13:25:32
                              2 ;;; 4.3.6 (gcc6809)
                              3 ;;; ABI version 1
                              4 ;;; -mabi=bx -mint8 -fomit-frame-pointer -O2
                              5 	.module	player.c
                              6 	.globl	_vl_player_mid
                              7 	.area	.text
   0228                       8 _vl_player_mid:
   0228 00                    9 	.byte	0
   0229 A0                   10 	.byte	-96
   022A B0                   11 	.byte	-80
   022B FF                   12 	.byte	-1
   022C 00                   13 	.byte	0
   022D B0                   14 	.byte	-80
   022E FF                   15 	.byte	-1
   022F 7F                   16 	.byte	127
   0230 00                   17 	.byte	0
   0231 FF                   18 	.byte	-1
   0232 00                   19 	.byte	0
   0233 50                   20 	.byte	80
   0234 FF                   21 	.byte	-1
   0235 80                   22 	.byte	-128
   0236 00                   23 	.byte	0
   0237 00                   24 	.byte	0
   0238 10                   25 	.byte	16
   0239 00                   26 	.byte	0
   023A FF                   27 	.byte	-1
   023B 10                   28 	.byte	16
   023C 3C                   29 	.byte	60
   023D 00                   30 	.byte	0
   023E 00                   31 	.byte	0
   023F 28                   32 	.byte	40
   0240 FF                   33 	.byte	-1
   0241 F0                   34 	.byte	-16
   0242 3C                   35 	.byte	60
   0243 00                   36 	.byte	0
   0244 F0                   37 	.byte	-16
   0245 00                   38 	.byte	0
   0246 FF                   39 	.byte	-1
   0247 00                   40 	.byte	0
   0248 50                   41 	.byte	80
   0249 FF                   42 	.byte	-1
   024A 7F                   43 	.byte	127
   024B 00                   44 	.byte	0
   024C FF                   45 	.byte	-1
   024D 00                   46 	.byte	0
   024E B0                   47 	.byte	-80
   024F FF                   48 	.byte	-1
   0250 80                   49 	.byte	-128
   0251 00                   50 	.byte	0
   0252 00                   51 	.byte	0
   0253 20                   52 	.byte	32
   0254 00                   53 	.byte	0
   0255 FF                   54 	.byte	-1
   0256 00                   55 	.byte	0
   0257 B0                   56 	.byte	-80
   0258 FF                   57 	.byte	-1
   0259 00                   58 	.byte	0
   025A B0                   59 	.byte	-80
   025B 00                   60 	.byte	0
   025C 40                   61 	.byte	64
   025D 00                   62 	.byte	0
   025E FF                   63 	.byte	-1
   025F 10                   64 	.byte	16
   0260 3C                   65 	.byte	60
   0261 FF                   66 	.byte	-1
   0262 00                   67 	.byte	0
   0263 28                   68 	.byte	40
   0264 FF                   69 	.byte	-1
   0265 F0                   70 	.byte	-16
   0266 3C                   71 	.byte	60
   0267 FF                   72 	.byte	-1
   0268 70                   73 	.byte	112
   0269 C0                   74 	.byte	-64
   026A FF                   75 	.byte	-1
   026B 00                   76 	.byte	0
   026C E0                   77 	.byte	-32
   026D 00                   78 	.byte	0
   026E E4                   79 	.byte	-28
   026F 30                   80 	.byte	48
   0270 FF                   81 	.byte	-1
   0271 00                   82 	.byte	0
   0272 30                   83 	.byte	48
   0273 FF                   84 	.byte	-1
   0274 10                   85 	.byte	16
   0275 F8                   86 	.byte	-8
   0276 FF                   87 	.byte	-1
   0277 00                   88 	.byte	0
   0278 D0                   89 	.byte	-48
   0279 00                   90 	.byte	0
   027A 00                   91 	.byte	0
   027B D0                   92 	.byte	-48
   027C FF                   93 	.byte	-1
   027D 00                   94 	.byte	0
   027E D0                   95 	.byte	-48
   027F FF                   96 	.byte	-1
   0280 F0                   97 	.byte	-16
   0281 F8                   98 	.byte	-8
   0282 FF                   99 	.byte	-1
   0283 00                  100 	.byte	0
   0284 30                  101 	.byte	48
   0285 00                  102 	.byte	0
   0286 1C                  103 	.byte	28
   0287 10                  104 	.byte	16
   0288 FF                  105 	.byte	-1
   0289 90                  106 	.byte	-112
   028A C0                  107 	.byte	-64
   028B 00                  108 	.byte	0
   028C 20                  109 	.byte	32
   028D D8                  110 	.byte	-40
   028E FF                  111 	.byte	-1
   028F 28                  112 	.byte	40
   0290 00                  113 	.byte	0
   0291 FF                  114 	.byte	-1
   0292 00                  115 	.byte	0
   0293 3C                  116 	.byte	60
   0294 FF                  117 	.byte	-1
   0295 DC                  118 	.byte	-36
   0296 00                  119 	.byte	0
   0297 00                  120 	.byte	0
   0298 00                  121 	.byte	0
   0299 78                  122 	.byte	120
   029A FF                  123 	.byte	-1
   029B 24                  124 	.byte	36
   029C 00                  125 	.byte	0
   029D FF                  126 	.byte	-1
   029E 00                  127 	.byte	0
   029F 3C                  128 	.byte	60
   02A0 FF                  129 	.byte	-1
   02A1 D8                  130 	.byte	-40
   02A2 00                  131 	.byte	0
   02A3 00                  132 	.byte	0
   02A4 14                  133 	.byte	20
   02A5 9C                  134 	.byte	-100
   02A6 FF                  135 	.byte	-1
   02A7 10                  136 	.byte	16
   02A8 F8                  137 	.byte	-8
   02A9 FF                  138 	.byte	-1
   02AA 00                  139 	.byte	0
   02AB E8                  140 	.byte	-24
   02AC FF                  141 	.byte	-1
   02AD F0                  142 	.byte	-16
   02AE F8                  143 	.byte	-8
   02AF                     144 _vl_term_0_76:
   02AF 01                  145 	.byte	1
                            146 	.globl	_vl_player_left
   02B0                     147 _vl_player_left:
                            148 	.globl	_vl_player_right
   02B0                     149 _vl_player_right:
                            150 	.area	.bss
                            151 	.globl	_player_lane
   C899                     152 _player_lane:	.blkb	1
                            153 	.area	.text
                            154 	.globl	_player_init
   02B0                     155 _player_init:
   02B0 C6 01         [ 2]  156 	ldb	#1
   02B2 F7 C8 99      [ 5]  157 	stb	_player_lane
   02B5 39            [ 5]  158 	rts
                            159 	.globl	_change_lane
   02B6                     160 _change_lane:
   02B6 C1 01         [ 2]  161 	cmpb	#1	;cmpqi:
   02B8 27 0F         [ 3]  162 	beq	L8
   02BA C1 FF         [ 2]  163 	cmpb	#-1	;cmpqi:
   02BC 27 01         [ 3]  164 	beq	L9
   02BE                     165 L6:
   02BE 39            [ 5]  166 	rts
   02BF                     167 L9:
   02BF F6 C8 99      [ 5]  168 	ldb	_player_lane
   02C2 27 FA         [ 3]  169 	beq	L6
   02C4 5A            [ 2]  170 	decb
   02C5 F7 C8 99      [ 5]  171 	stb	_player_lane
   02C8 39            [ 5]  172 	rts
   02C9                     173 L8:
   02C9 F6 C8 99      [ 5]  174 	ldb	_player_lane
   02CC C1 02         [ 2]  175 	cmpb	#2	;cmpqi:
   02CE 27 EE         [ 3]  176 	beq	L6
   02D0 5C            [ 2]  177 	incb
   02D1 F7 C8 99      [ 5]  178 	stb	_player_lane
   02D4 39            [ 5]  179 	rts
                            180 	.globl	_player_handle_input
   02D5                     181 _player_handle_input:
   02D5 32 7F         [ 5]  182 	leas	-1,s
   02D7 BD F1 BA      [ 8]  183 	jsr	___Read_Btns
   02DA F6 C8 11      [ 5]  184 	ldb	_Vec_Buttons
   02DD E7 E4         [ 4]  185 	stb	,s
   02DF C5 01         [ 2]  186 	bitb	#1
   02E1 27 2B         [ 3]  187 	beq	L11
   02E3 F6 C8 99      [ 5]  188 	ldb	_player_lane
   02E6 26 39         [ 3]  189 	bne	L16
   02E8                     190 L12:
   02E8 C6 02         [ 2]  191 	ldb	#2
   02EA E4 E4         [ 4]  192 	andb	,s
   02EC 27 0C         [ 3]  193 	beq	L13
   02EE F6 C8 97      [ 5]  194 	ldb	_lvl_speed
   02F1 27 04         [ 3]  195 	beq	L15
   02F3 5A            [ 2]  196 	decb
   02F4 F7 C8 97      [ 5]  197 	stb	_lvl_speed
   02F7                     198 L15:
   02F7 32 61         [ 5]  199 	leas	1,s
   02F9 39            [ 5]  200 	rts
   02FA                     201 L13:
   02FA C6 08         [ 2]  202 	ldb	#8
   02FC E4 E4         [ 4]  203 	andb	,s
   02FE 27 F7         [ 3]  204 	beq	L15
   0300 F6 C8 97      [ 5]  205 	ldb	_lvl_speed
   0303 C1 06         [ 2]  206 	cmpb	#6	;cmpqi:
   0305 27 F0         [ 3]  207 	beq	L15
   0307 5C            [ 2]  208 	incb
   0308 F7 C8 97      [ 5]  209 	stb	_lvl_speed
   030B 32 61         [ 5]  210 	leas	1,s
   030D 39            [ 5]  211 	rts
   030E                     212 L11:
   030E C6 04         [ 2]  213 	ldb	#4
   0310 E4 E4         [ 4]  214 	andb	,s
   0312 27 D4         [ 3]  215 	beq	L12
   0314 F6 C8 99      [ 5]  216 	ldb	_player_lane
   0317 C1 02         [ 2]  217 	cmpb	#2	;cmpqi:
   0319 27 CD         [ 3]  218 	beq	L12
   031B 5C            [ 2]  219 	incb
   031C F7 C8 99      [ 5]  220 	stb	_player_lane
   031F 20 C7         [ 3]  221 	bra	L12
   0321                     222 L16:
   0321 5A            [ 2]  223 	decb
   0322 F7 C8 99      [ 5]  224 	stb	_player_lane
   0325 20 C1         [ 3]  225 	bra	L12
                            226 	.globl	_local_lu_player_x_pos
   0327                     227 _local_lu_player_x_pos:
   0327 B9                  228 	.byte	-71
   0328 00                  229 	.byte	0
   0329 47                  230 	.byte	71
                            231 	.globl	_local_player_draw_left
   032A                     232 _local_player_draw_left:
   032A C6 10         [ 2]  233 	ldb	#16
   032C D7 04         [ 4]  234 	stb	*_dp_VIA_t1_cnt_lo
   032E 8E 02 B0      [ 3]  235 	ldx	#_vl_player_left
   0331 7E F4 10      [ 4]  236 	jmp	___Draw_VLp
                            237 	.globl	_local_player_draw_mid
   0334                     238 _local_player_draw_mid:
   0334 C6 40         [ 2]  239 	ldb	#64
   0336 D7 04         [ 4]  240 	stb	*_dp_VIA_t1_cnt_lo
   0338 8E 02 28      [ 3]  241 	ldx	#_vl_player_mid
   033B 7E F4 10      [ 4]  242 	jmp	___Draw_VLp
                            243 	.globl	_local_player_draw_right
   033E                     244 _local_player_draw_right:
   033E C6 08         [ 2]  245 	ldb	#8
   0340 D7 04         [ 4]  246 	stb	*_dp_VIA_t1_cnt_lo
   0342 8E 02 B0      [ 3]  247 	ldx	#_vl_player_right
   0345 7E F4 10      [ 4]  248 	jmp	___Draw_VLp
                            249 	.globl	_local_lu_player_draw_func_ptr
   0348                     250 _local_lu_player_draw_func_ptr:
   0348 03 2A               251 	.word	_local_player_draw_left
   034A 03 34               252 	.word	_local_player_draw_mid
   034C 03 3E               253 	.word	_local_player_draw_right
                            254 	.globl	_player_draw
   034E                     255 _player_draw:
   034E 32 7E         [ 5]  256 	leas	-2,s
   0350 BD F2 A5      [ 8]  257 	jsr	___Intensity_5F
   0353 BD F3 54      [ 8]  258 	jsr	___Reset0Ref
   0356 C6 7F         [ 2]  259 	ldb	#127
   0358 D7 04         [ 4]  260 	stb	*_dp_VIA_t1_cnt_lo
   035A F6 C8 99      [ 5]  261 	ldb	_player_lane
   035D 4F            [ 2]  262 	clra		;zero_extendqihi: R:b -> R:d
   035E 1F 01         [ 6]  263 	tfr	d,x
   0360 C6 90         [ 2]  264 	ldb	#-112
   0362 E7 E2         [ 6]  265 	stb	,-s
   0364 E6 89 03 27   [ 8]  266 	ldb	_local_lu_player_x_pos,x
   0368 BD 05 90      [ 8]  267 	jsr	__Moveto_d
   036B F6 C8 99      [ 5]  268 	ldb	_player_lane
   036E 4F            [ 2]  269 	clra		;zero_extendqihi: R:b -> R:d
   036F ED 61         [ 6]  270 	std	1,s
   0371 58            [ 2]  271 	aslb
   0372 49            [ 2]  272 	rola
   0373 1F 01         [ 6]  273 	tfr	d,x
   0375 AD 99 03 48   [14]  274 	jsr	[_local_lu_player_draw_func_ptr,x]
   0379 32 63         [ 5]  275 	leas	3,s
   037B 39            [ 5]  276 	rts
ASxxxx Assembler V05.50  (Motorola 6809)                                Page 1
Hexadecimal [16-Bits]                                 Sat May  3 04:10:25 2025

Symbol Table

    .__.$$$.       =   2710 L   |     .__.ABS.       =   0000 G
    .__.CPU.       =   0000 L   |     .__.H$L.       =   0001 L
  2 L11                00E6 R   |   2 L12                00C0 R
  2 L13                00D2 R   |   2 L15                00CF R
  2 L16                00F9 R   |   2 L6                 0096 R
  2 L8                 00A1 R   |   2 L9                 0097 R
    _Vec_Buttons       **** GX  |     __Moveto_d         **** GX
    ___Draw_VLp        **** GX  |     ___Intensity_5     **** GX
    ___Read_Btns       **** GX  |     ___Reset0Ref       **** GX
  2 _change_lane       008E GR  |     _dp_VIA_t1_cnt     **** GX
  2 _local_lu_play     0120 GR  |   2 _local_lu_play     00FF GR
  2 _local_player_     0102 GR  |   2 _local_player_     010C GR
  2 _local_player_     0116 GR  |     _lvl_speed         **** GX
  2 _player_draw       0126 GR  |   2 _player_handle     00AD GR
  2 _player_init       0088 GR  |   3 _player_lane       0000 GR
  2 _vl_player_lef     0088 GR  |   2 _vl_player_mid     0000 GR
  2 _vl_player_rig     0088 GR  |   2 _vl_term_0_76      0087 R

ASxxxx Assembler V05.50  (Motorola 6809)                                Page 2
Hexadecimal [16-Bits]                                 Sat May  3 04:10:25 2025

Area Table

[_CSEG]
   0 _CODE            size    0   flags C080
   2 .text            size  154   flags  100
   3 .bss             size    1   flags    0
[_DSEG]
   1 _DATA            size    0   flags C0C0

