                              1 ;;; gcc for m6809 : Mar 17 2019 13:25:32
                              2 ;;; 4.3.6 (gcc6809)
                              3 ;;; ABI version 1
                              4 ;;; -mabi=bx -mint8 -fomit-frame-pointer -O2
                              5 	.module	map.c
                              6 	.globl	_vl_misc_roadline_left
                              7 	.area	.text
   0079                       8 _vl_misc_roadline_left:
   0079 FF                    9 	.byte	-1
   007A E0                   10 	.byte	-32
   007B F8                   11 	.byte	-8
   007C 00                   12 	.byte	0
   007D E0                   13 	.byte	-32
   007E F8                   14 	.byte	-8
   007F FF                   15 	.byte	-1
   0080 E0                   16 	.byte	-32
   0081 F8                   17 	.byte	-8
   0082 00                   18 	.byte	0
   0083 E0                   19 	.byte	-32
   0084 F8                   20 	.byte	-8
   0085 FF                   21 	.byte	-1
   0086 C0                   22 	.byte	-64
   0087 F0                   23 	.byte	-16
   0088 00                   24 	.byte	0
   0089 C0                   25 	.byte	-64
   008A F0                   26 	.byte	-16
   008B FF                   27 	.byte	-1
   008C C0                   28 	.byte	-64
   008D F0                   29 	.byte	-16
   008E 00                   30 	.byte	0
   008F C0                   31 	.byte	-64
   0090 F0                   32 	.byte	-16
   0091 FF                   33 	.byte	-1
   0092 A0                   34 	.byte	-96
   0093 E8                   35 	.byte	-24
   0094 00                   36 	.byte	0
   0095 A0                   37 	.byte	-96
   0096 E8                   38 	.byte	-24
   0097 FF                   39 	.byte	-1
   0098 A0                   40 	.byte	-96
   0099 E8                   41 	.byte	-24
   009A 00                   42 	.byte	0
   009B A0                   43 	.byte	-96
   009C E8                   44 	.byte	-24
   009D FF                   45 	.byte	-1
   009E 80                   46 	.byte	-128
   009F E0                   47 	.byte	-32
   00A0 00                   48 	.byte	0
   00A1 80                   49 	.byte	-128
   00A2 E0                   50 	.byte	-32
   00A3 FF                   51 	.byte	-1
   00A4 80                   52 	.byte	-128
   00A5 E0                   53 	.byte	-32
   00A6 00                   54 	.byte	0
   00A7 80                   55 	.byte	-128
   00A8 E0                   56 	.byte	-32
   00A9 FF                   57 	.byte	-1
   00AA 80                   58 	.byte	-128
   00AB E0                   59 	.byte	-32
   00AC FF                   60 	.byte	-1
   00AD E0                   61 	.byte	-32
   00AE F8                   62 	.byte	-8
   00AF                      63 _vl_term_0_35:
   00AF 01                   64 	.byte	1
                             65 	.globl	_vl_misc_roadline_right
   00B0                      66 _vl_misc_roadline_right:
   00B0 FF                   67 	.byte	-1
   00B1 E0                   68 	.byte	-32
   00B2 08                   69 	.byte	8
   00B3 00                   70 	.byte	0
   00B4 E0                   71 	.byte	-32
   00B5 08                   72 	.byte	8
   00B6 FF                   73 	.byte	-1
   00B7 E0                   74 	.byte	-32
   00B8 08                   75 	.byte	8
   00B9 00                   76 	.byte	0
   00BA E0                   77 	.byte	-32
   00BB 08                   78 	.byte	8
   00BC FF                   79 	.byte	-1
   00BD C0                   80 	.byte	-64
   00BE 10                   81 	.byte	16
   00BF 00                   82 	.byte	0
   00C0 C0                   83 	.byte	-64
   00C1 10                   84 	.byte	16
   00C2 FF                   85 	.byte	-1
   00C3 C0                   86 	.byte	-64
   00C4 10                   87 	.byte	16
   00C5 00                   88 	.byte	0
   00C6 C0                   89 	.byte	-64
   00C7 10                   90 	.byte	16
   00C8 FF                   91 	.byte	-1
   00C9 A0                   92 	.byte	-96
   00CA 18                   93 	.byte	24
   00CB 00                   94 	.byte	0
   00CC A0                   95 	.byte	-96
   00CD 18                   96 	.byte	24
   00CE FF                   97 	.byte	-1
   00CF A0                   98 	.byte	-96
   00D0 18                   99 	.byte	24
   00D1 00                  100 	.byte	0
   00D2 A0                  101 	.byte	-96
   00D3 18                  102 	.byte	24
   00D4 FF                  103 	.byte	-1
   00D5 80                  104 	.byte	-128
   00D6 20                  105 	.byte	32
   00D7 00                  106 	.byte	0
   00D8 80                  107 	.byte	-128
   00D9 20                  108 	.byte	32
   00DA FF                  109 	.byte	-1
   00DB 80                  110 	.byte	-128
   00DC 20                  111 	.byte	32
   00DD 00                  112 	.byte	0
   00DE 80                  113 	.byte	-128
   00DF 20                  114 	.byte	32
   00E0 FF                  115 	.byte	-1
   00E1 80                  116 	.byte	-128
   00E2 20                  117 	.byte	32
   00E3 FF                  118 	.byte	-1
   00E4 E0                  119 	.byte	-32
   00E5 08                  120 	.byte	8
   00E6                     121 _vl_term_1_60:
   00E6 01                  122 	.byte	1
                            123 	.globl	_local_lu_animation_interval
   00E7                     124 _local_lu_animation_interval:
   00E7 5D                  125 	.byte	93
   00E8 51                  126 	.byte	81
   00E9 45                  127 	.byte	69
   00EA 3A                  128 	.byte	58
   00EB 31                  129 	.byte	49
   00EC 2A                  130 	.byte	42
   00ED 22                  131 	.byte	34
                            132 	.area	.bss
                            133 	.globl	_animation_step
   C888                     134 _animation_step:	.blkb	1
                            135 	.area	.text
                            136 	.globl	_map_init
   00EE                     137 _map_init:
   00EE 7F C8 88      [ 7]  138 	clr	_animation_step
   00F1 39            [ 5]  139 	rts
                            140 	.globl	_map_calculate_animation
   00F2                     141 _map_calculate_animation:
   00F2 34 20         [ 6]  142 	pshs	y
   00F4 32 7C         [ 5]  143 	leas	-4,s
   00F6 F6 C8 87      [ 5]  144 	ldb	_lvl_speed
   00F9 4F            [ 2]  145 	clra		;zero_extendqihi: R:b -> R:d
   00FA 1F 01         [ 6]  146 	tfr	d,x
   00FC E6 89 00 E7   [ 8]  147 	ldb	_local_lu_animation_interval,x
   0100 4F            [ 2]  148 	clra		;zero_extendqihi: R:b -> R:d
   0101 ED E4         [ 5]  149 	std	,s
   0103 10 8E 00 03   [ 4]  150 	ldy	#3
   0107 34 20         [ 6]  151 	pshs	y
   0109 AE 62         [ 6]  152 	ldx	2,s
   010B BD 04 26      [ 8]  153 	jsr	_udivhi3
   010E 32 62         [ 5]  154 	leas	2,s
   0110 AF E4         [ 5]  155 	stx	,s
   0112 F6 C8 86      [ 5]  156 	ldb	_clk_frames
   0115 4F            [ 2]  157 	clra		;zero_extendqihi: R:b -> R:d
   0116 ED 62         [ 6]  158 	std	2,s
   0118 1F 10         [ 6]  159 	tfr	x,d	;movlsbqihi: R:x -> R:b
   011A 4F            [ 2]  160 	clra		;zero_extendqihi: R:b -> R:d
   011B 34 06         [ 7]  161 	pshs	d
   011D AE 64         [ 6]  162 	ldx	4,s
   011F BD 04 26      [ 8]  163 	jsr	_udivhi3
   0122 1F 10         [ 6]  164 	tfr	x,d
   0124 4F            [ 2]  165 	clra		;zero_extendqihi: R:b -> R:d
   0125 10 AF E4      [ 6]  166 	sty	,s
   0128 1F 01         [ 6]  167 	tfr	d,x
   012A BD 04 15      [ 8]  168 	jsr	_umodhi3
   012D 1F 10         [ 6]  169 	tfr	x,d
   012F F7 C8 88      [ 5]  170 	stb	_animation_step	;movlsbqihi: R:d -> _animation_step
   0132 32 66         [ 5]  171 	leas	6,s
   0134 35 A0         [ 7]  172 	puls	y,pc
                            173 	.globl	_map_draw_road
   0136                     174 _map_draw_road:
   0136 32 7D         [ 5]  175 	leas	-3,s
   0138 BD F2 A5      [ 8]  176 	jsr	___Intensity_5F
   013B BD F3 54      [ 8]  177 	jsr	___Reset0Ref
   013E C6 7F         [ 2]  178 	ldb	#127
   0140 D7 04         [ 4]  179 	stb	*_dp_VIA_t1_cnt_lo
   0142 C6 24         [ 2]  180 	ldb	#36
   0144 E7 E2         [ 6]  181 	stb	,-s
   0146 C6 F1         [ 2]  182 	ldb	#-15
   0148 BD 04 39      [ 8]  183 	jsr	__Moveto_d
   014B C6 A8         [ 2]  184 	ldb	#-88
   014D D7 04         [ 4]  185 	stb	*_dp_VIA_t1_cnt_lo
   014F C6 80         [ 2]  186 	ldb	#-128
   0151 E7 E2         [ 6]  187 	stb	,-s
   0153 CB 2E         [ 2]  188 	addb	#46
   0155 BD 04 34      [ 8]  189 	jsr	__Draw_Line_d
   0158 BD F3 54      [ 8]  190 	jsr	___Reset0Ref
   015B C6 7F         [ 2]  191 	ldb	#127
   015D D7 04         [ 4]  192 	stb	*_dp_VIA_t1_cnt_lo
   015F F6 C8 88      [ 5]  193 	ldb	_animation_step
   0162 E7 63         [ 5]  194 	stb	3,s
   0164 32 62         [ 5]  195 	leas	2,s
   0166 C1 02         [ 2]  196 	cmpb	#2	;cmpqi:
   0168 10 27 00 6E   [ 6]  197 	lbeq	L12
   016C C6 FB         [ 2]  198 	ldb	#-5
   016E E0 61         [ 5]  199 	subb	1,s
   0170 E7 E4         [ 4]  200 	stb	,s
   0172 C6 09         [ 2]  201 	ldb	#9
   0174 E0 61         [ 5]  202 	subb	1,s
   0176 58            [ 2]  203 	aslb
   0177 58            [ 2]  204 	aslb
   0178 34 04         [ 6]  205 	pshs	b
   017A E6 61         [ 5]  206 	ldb	1,s
   017C BD 04 39      [ 8]  207 	jsr	__Moveto_d
   017F 32 61         [ 5]  208 	leas	1,s
   0181                     209 L7:
   0181 C6 10         [ 2]  210 	ldb	#16
   0183 D7 04         [ 4]  211 	stb	*_dp_VIA_t1_cnt_lo
   0185 8E 00 79      [ 3]  212 	ldx	#_vl_misc_roadline_left
   0188 BD F4 10      [ 8]  213 	jsr	___Draw_VLp
   018B BD F3 54      [ 8]  214 	jsr	___Reset0Ref
   018E C6 7F         [ 2]  215 	ldb	#127
   0190 D7 04         [ 4]  216 	stb	*_dp_VIA_t1_cnt_lo
   0192 F6 C8 88      [ 5]  217 	ldb	_animation_step
   0195 E7 62         [ 5]  218 	stb	2,s
   0197 C1 02         [ 2]  219 	cmpb	#2	;cmpqi:
   0199 10 27 00 5D   [ 6]  220 	lbeq	L13
   019D C6 09         [ 2]  221 	ldb	#9
   019F E0 62         [ 5]  222 	subb	2,s
   01A1 58            [ 2]  223 	aslb
   01A2 58            [ 2]  224 	aslb
   01A3 34 04         [ 6]  225 	pshs	b
   01A5 E6 63         [ 5]  226 	ldb	3,s
   01A7 CB 05         [ 2]  227 	addb	#5
   01A9 E7 63         [ 5]  228 	stb	3,s
   01AB BD 04 39      [ 8]  229 	jsr	__Moveto_d
   01AE 32 61         [ 5]  230 	leas	1,s
   01B0                     231 L9:
   01B0 C6 10         [ 2]  232 	ldb	#16
   01B2 D7 04         [ 4]  233 	stb	*_dp_VIA_t1_cnt_lo
   01B4 8E 00 B0      [ 3]  234 	ldx	#_vl_misc_roadline_right
   01B7 BD F4 10      [ 8]  235 	jsr	___Draw_VLp
   01BA BD F3 54      [ 8]  236 	jsr	___Reset0Ref
   01BD C6 7F         [ 2]  237 	ldb	#127
   01BF D7 04         [ 4]  238 	stb	*_dp_VIA_t1_cnt_lo
   01C1 C6 24         [ 2]  239 	ldb	#36
   01C3 E7 E2         [ 6]  240 	stb	,-s
   01C5 C6 0F         [ 2]  241 	ldb	#15
   01C7 BD 04 39      [ 8]  242 	jsr	__Moveto_d
   01CA C6 FF         [ 2]  243 	ldb	#-1
   01CC D7 04         [ 4]  244 	stb	*_dp_VIA_t1_cnt_lo
   01CE C6 B0         [ 2]  245 	ldb	#-80
   01D0 E7 E2         [ 6]  246 	stb	,-s
   01D2 C6 34         [ 2]  247 	ldb	#52
   01D4 BD 04 34      [ 8]  248 	jsr	__Draw_Line_d
   01D7 32 65         [ 5]  249 	leas	5,s
   01D9 39            [ 5]  250 	rts
   01DA                     251 L12:
   01DA C6 24         [ 2]  252 	ldb	#36
   01DC E7 E2         [ 6]  253 	stb	,-s
   01DE C6 FB         [ 2]  254 	ldb	#-5
   01E0 BD 04 39      [ 8]  255 	jsr	__Moveto_d
   01E3 C6 FC         [ 2]  256 	ldb	#-4
   01E5 E7 E2         [ 6]  257 	stb	,-s
   01E7 CB 03         [ 2]  258 	addb	#3
   01E9 BD 04 34      [ 8]  259 	jsr	__Draw_Line_d
   01EC C6 FC         [ 2]  260 	ldb	#-4
   01EE E7 E2         [ 6]  261 	stb	,-s
   01F0 CB 03         [ 2]  262 	addb	#3
   01F2 BD 04 39      [ 8]  263 	jsr	__Moveto_d
   01F5 32 63         [ 5]  264 	leas	3,s
   01F7 16 FF 87      [ 5]  265 	lbra	L7
   01FA                     266 L13:
   01FA C6 24         [ 2]  267 	ldb	#36
   01FC E7 E2         [ 6]  268 	stb	,-s
   01FE C6 05         [ 2]  269 	ldb	#5
   0200 BD 04 39      [ 8]  270 	jsr	__Moveto_d
   0203 C6 FC         [ 2]  271 	ldb	#-4
   0205 E7 E2         [ 6]  272 	stb	,-s
   0207 C6 01         [ 2]  273 	ldb	#1
   0209 BD 04 34      [ 8]  274 	jsr	__Draw_Line_d
   020C C6 FC         [ 2]  275 	ldb	#-4
   020E E7 E2         [ 6]  276 	stb	,-s
   0210 C6 01         [ 2]  277 	ldb	#1
   0212 BD 04 39      [ 8]  278 	jsr	__Moveto_d
   0215 32 63         [ 5]  279 	leas	3,s
   0217 16 FF 96      [ 5]  280 	lbra	L9
ASxxxx Assembler V05.50  (Motorola 6809)                                Page 1
Hexadecimal [16-Bits]                                 Sat May  3 02:34:05 2025

Symbol Table

    .__.$$$.       =   2710 L   |     .__.ABS.       =   0000 G
    .__.CPU.       =   0000 L   |     .__.H$L.       =   0001 L
  2 L12                0161 R   |   2 L13                0181 R
  2 L7                 0108 R   |   2 L9                 0137 R
    __Draw_Line_d      **** GX  |     __Moveto_d         **** GX
    ___Draw_VLp        **** GX  |     ___Intensity_5     **** GX
    ___Reset0Ref       **** GX  |   3 _animation_ste     0000 GR
    _clk_frames        **** GX  |     _dp_VIA_t1_cnt     **** GX
  2 _local_lu_anim     006E GR  |     _lvl_speed         **** GX
  2 _map_calculate     0079 GR  |   2 _map_draw_road     00BD GR
  2 _map_init          0075 GR  |     _udivhi3           **** GX
    _umodhi3           **** GX  |   2 _vl_misc_roadl     0000 GR
  2 _vl_misc_roadl     0037 GR  |   2 _vl_term_0_35      0036 R
  2 _vl_term_1_60      006D R

ASxxxx Assembler V05.50  (Motorola 6809)                                Page 2
Hexadecimal [16-Bits]                                 Sat May  3 02:34:05 2025

Area Table

[_CSEG]
   0 _CODE            size    0   flags C080
   2 .text            size  1A1   flags  100
   3 .bss             size    1   flags    0
[_DSEG]
   1 _DATA            size    0   flags C0C0

