                              1 ;;; gcc for m6809 : Mar 17 2019 13:25:32
                              2 ;;; 4.3.6 (gcc6809)
                              3 ;;; ABI version 1
                              4 ;;; -mabi=bx -mint8 -fomit-frame-pointer -O0
                              5 	.module	player.c
                              6 	.globl	_vl_player_mid
                              7 	.area	.text
   0230                       8 _vl_player_mid:
   0230 00                    9 	.byte	0
   0231 E8                   10 	.byte	-24
   0232 EC                   11 	.byte	-20
   0233 FF                   12 	.byte	-1
   0234 00                   13 	.byte	0
   0235 EC                   14 	.byte	-20
   0236 FF                   15 	.byte	-1
   0237 20                   16 	.byte	32
   0238 00                   17 	.byte	0
   0239 FF                   18 	.byte	-1
   023A 00                   19 	.byte	0
   023B 14                   20 	.byte	20
   023C FF                   21 	.byte	-1
   023D E0                   22 	.byte	-32
   023E 00                   23 	.byte	0
   023F 00                   24 	.byte	0
   0240 04                   25 	.byte	4
   0241 00                   26 	.byte	0
   0242 FF                   27 	.byte	-1
   0243 04                   28 	.byte	4
   0244 0F                   29 	.byte	15
   0245 00                   30 	.byte	0
   0246 00                   31 	.byte	0
   0247 0A                   32 	.byte	10
   0248 FF                   33 	.byte	-1
   0249 FC                   34 	.byte	-4
   024A 0F                   35 	.byte	15
   024B 00                   36 	.byte	0
   024C FC                   37 	.byte	-4
   024D 00                   38 	.byte	0
   024E FF                   39 	.byte	-1
   024F 00                   40 	.byte	0
   0250 14                   41 	.byte	20
   0251 FF                   42 	.byte	-1
   0252 20                   43 	.byte	32
   0253 00                   44 	.byte	0
   0254 FF                   45 	.byte	-1
   0255 00                   46 	.byte	0
   0256 EC                   47 	.byte	-20
   0257 FF                   48 	.byte	-1
   0258 E0                   49 	.byte	-32
   0259 00                   50 	.byte	0
   025A 00                   51 	.byte	0
   025B 08                   52 	.byte	8
   025C 00                   53 	.byte	0
   025D FF                   54 	.byte	-1
   025E 00                   55 	.byte	0
   025F D8                   56 	.byte	-40
   0260 00                   57 	.byte	0
   0261 10                   58 	.byte	16
   0262 00                   59 	.byte	0
   0263 FF                   60 	.byte	-1
   0264 04                   61 	.byte	4
   0265 0F                   62 	.byte	15
   0266 FF                   63 	.byte	-1
   0267 00                   64 	.byte	0
   0268 0A                   65 	.byte	10
   0269 FF                   66 	.byte	-1
   026A FC                   67 	.byte	-4
   026B 0F                   68 	.byte	15
   026C FF                   69 	.byte	-1
   026D 1C                   70 	.byte	28
   026E F0                   71 	.byte	-16
   026F FF                   72 	.byte	-1
   0270 00                   73 	.byte	0
   0271 F8                   74 	.byte	-8
   0272 00                   75 	.byte	0
   0273 F9                   76 	.byte	-7
   0274 0C                   77 	.byte	12
   0275 FF                   78 	.byte	-1
   0276 00                   79 	.byte	0
   0277 0C                   80 	.byte	12
   0278 FF                   81 	.byte	-1
   0279 04                   82 	.byte	4
   027A FE                   83 	.byte	-2
   027B FF                   84 	.byte	-1
   027C 00                   85 	.byte	0
   027D F4                   86 	.byte	-12
   027E 00                   87 	.byte	0
   027F 00                   88 	.byte	0
   0280 F4                   89 	.byte	-12
   0281 FF                   90 	.byte	-1
   0282 00                   91 	.byte	0
   0283 F4                   92 	.byte	-12
   0284 FF                   93 	.byte	-1
   0285 FC                   94 	.byte	-4
   0286 FE                   95 	.byte	-2
   0287 FF                   96 	.byte	-1
   0288 00                   97 	.byte	0
   0289 0C                   98 	.byte	12
   028A 00                   99 	.byte	0
   028B 07                  100 	.byte	7
   028C 04                  101 	.byte	4
   028D FF                  102 	.byte	-1
   028E E4                  103 	.byte	-28
   028F F0                  104 	.byte	-16
   0290 00                  105 	.byte	0
   0291 08                  106 	.byte	8
   0292 F6                  107 	.byte	-10
   0293 FF                  108 	.byte	-1
   0294 0A                  109 	.byte	10
   0295 00                  110 	.byte	0
   0296 FF                  111 	.byte	-1
   0297 00                  112 	.byte	0
   0298 0F                  113 	.byte	15
   0299 FF                  114 	.byte	-1
   029A F7                  115 	.byte	-9
   029B 00                  116 	.byte	0
   029C 00                  117 	.byte	0
   029D 00                  118 	.byte	0
   029E 1E                  119 	.byte	30
   029F FF                  120 	.byte	-1
   02A0 09                  121 	.byte	9
   02A1 00                  122 	.byte	0
   02A2 FF                  123 	.byte	-1
   02A3 00                  124 	.byte	0
   02A4 0F                  125 	.byte	15
   02A5 FF                  126 	.byte	-1
   02A6 F6                  127 	.byte	-10
   02A7 00                  128 	.byte	0
   02A8 00                  129 	.byte	0
   02A9 05                  130 	.byte	5
   02AA E7                  131 	.byte	-25
   02AB FF                  132 	.byte	-1
   02AC 04                  133 	.byte	4
   02AD FE                  134 	.byte	-2
   02AE FF                  135 	.byte	-1
   02AF 00                  136 	.byte	0
   02B0 FA                  137 	.byte	-6
   02B1 FF                  138 	.byte	-1
   02B2 FC                  139 	.byte	-4
   02B3 FE                  140 	.byte	-2
   02B4                     141 _vl_term_0_75:
   02B4 01                  142 	.byte	1
                            143 	.globl	_vl_player_left
   02B5                     144 _vl_player_left:
   02B5 00                  145 	.byte	0
   02B6 E8                  146 	.byte	-24
   02B7 EC                  147 	.byte	-20
   02B8                     148 _vl_term_1_84:
   02B8 01                  149 	.byte	1
                            150 	.globl	_vl_player_right
   02B9                     151 _vl_player_right:
   02B9 00                  152 	.byte	0
   02BA E8                  153 	.byte	-24
   02BB EC                  154 	.byte	-20
   02BC                     155 _vl_term_2_93:
   02BC 01                  156 	.byte	1
                            157 	.globl	_player_lane
                            158 	.area	.data
   C882                     159 _player_lane:
   C882 01                  160 	.byte	1
                            161 	.area	.text
                            162 	.globl	_change_lane
   02BD                     163 _change_lane:
   02BD 32 7F         [ 5]  164 	leas	-1,s
   02BF E7 E4         [ 4]  165 	stb	,s
   02C1 E6 E4         [ 4]  166 	ldb	,s
   02C3 C1 01         [ 2]  167 	cmpb	#1	;cmpqi:
   02C5 26 10         [ 3]  168 	bne	L2
   02C7 F6 C8 82      [ 5]  169 	ldb	_player_lane
   02CA C1 02         [ 2]  170 	cmpb	#2	;cmpqi:
   02CC 27 1C         [ 3]  171 	beq	L4
   02CE F6 C8 82      [ 5]  172 	ldb	_player_lane
   02D1 5C            [ 2]  173 	incb
   02D2 F7 C8 82      [ 5]  174 	stb	_player_lane
   02D5 20 13         [ 3]  175 	bra	L4
   02D7                     176 L2:
   02D7 E6 E4         [ 4]  177 	ldb	,s
   02D9 C1 FF         [ 2]  178 	cmpb	#-1	;cmpqi:
   02DB 26 0D         [ 3]  179 	bne	L4
   02DD F6 C8 82      [ 5]  180 	ldb	_player_lane
   02E0 5D            [ 2]  181 	tstb
   02E1 27 07         [ 3]  182 	beq	L4
   02E3 F6 C8 82      [ 5]  183 	ldb	_player_lane
   02E6 5A            [ 2]  184 	decb
   02E7 F7 C8 82      [ 5]  185 	stb	_player_lane
   02EA                     186 L4:
   02EA 32 61         [ 5]  187 	leas	1,s
   02EC 39            [ 5]  188 	rts
                            189 	.globl	_player_handle_input
   02ED                     190 _player_handle_input:
   02ED BD F1 BA      [ 8]  191 	jsr	___Read_Btns
   02F0 F6 C8 11      [ 5]  192 	ldb	_Vec_Buttons
   02F3 C4 01         [ 2]  193 	andb	#1
   02F5 5D            [ 2]  194 	tstb
   02F6 27 07         [ 3]  195 	beq	L6
   02F8 C6 FF         [ 2]  196 	ldb	#-1
   02FA BD 02 BD      [ 8]  197 	jsr	_change_lane
   02FD 20 0D         [ 3]  198 	bra	L7
   02FF                     199 L6:
   02FF F6 C8 11      [ 5]  200 	ldb	_Vec_Buttons
   0302 C4 04         [ 2]  201 	andb	#4
   0304 5D            [ 2]  202 	tstb
   0305 27 05         [ 3]  203 	beq	L7
   0307 C6 01         [ 2]  204 	ldb	#1
   0309 BD 02 BD      [ 8]  205 	jsr	_change_lane
   030C                     206 L7:
   030C F6 C8 11      [ 5]  207 	ldb	_Vec_Buttons
   030F C4 02         [ 2]  208 	andb	#2
   0311 5D            [ 2]  209 	tstb
   0312 27 17         [ 3]  210 	beq	L8
   0314 F6 C8 86      [ 5]  211 	ldb	_lvl_speed
   0317 C1 01         [ 2]  212 	cmpb	#1	;cmpqi:
   0319 26 07         [ 3]  213 	bne	L9
   031B C6 0A         [ 2]  214 	ldb	#10
   031D F7 C8 86      [ 5]  215 	stb	_lvl_speed
   0320 20 26         [ 3]  216 	bra	L13
   0322                     217 L9:
   0322 F6 C8 86      [ 5]  218 	ldb	_lvl_speed
   0325 5A            [ 2]  219 	decb
   0326 F7 C8 86      [ 5]  220 	stb	_lvl_speed
   0329 20 1D         [ 3]  221 	bra	L13
   032B                     222 L8:
   032B F6 C8 11      [ 5]  223 	ldb	_Vec_Buttons
   032E C4 08         [ 2]  224 	andb	#8
   0330 5D            [ 2]  225 	tstb
   0331 27 15         [ 3]  226 	beq	L13
   0333 F6 C8 86      [ 5]  227 	ldb	_lvl_speed
   0336 C1 0A         [ 2]  228 	cmpb	#10	;cmpqi:
   0338 26 07         [ 3]  229 	bne	L12
   033A C6 01         [ 2]  230 	ldb	#1
   033C F7 C8 86      [ 5]  231 	stb	_lvl_speed
   033F 20 07         [ 3]  232 	bra	L13
   0341                     233 L12:
   0341 F6 C8 86      [ 5]  234 	ldb	_lvl_speed
   0344 5C            [ 2]  235 	incb
   0345 F7 C8 86      [ 5]  236 	stb	_lvl_speed
   0348                     237 L13:
   0348 39            [ 5]  238 	rts
                            239 	.globl	_local_lu_player_x_pos
   0349                     240 _local_lu_player_x_pos:
   0349 B9                  241 	.byte	-71
   034A 00                  242 	.byte	0
   034B 47                  243 	.byte	71
                            244 	.globl	_player_draw
   034C                     245 _player_draw:
   034C 32 7F         [ 5]  246 	leas	-1,s
   034E BD F2 A5      [ 8]  247 	jsr	___Intensity_5F
   0351 BD F3 54      [ 8]  248 	jsr	___Reset0Ref
   0354 C6 7F         [ 2]  249 	ldb	#127
   0356 D7 04         [ 4]  250 	stb	*_dp_VIA_t1_cnt_lo
   0358 F6 C8 82      [ 5]  251 	ldb	_player_lane
   035B 4F            [ 2]  252 	clra		;zero_extendqihi: R:b -> R:d
   035C 1F 01         [ 6]  253 	tfr	d,x
   035E E6 89 03 49   [ 8]  254 	ldb	_local_lu_player_x_pos,x
   0362 E7 E4         [ 4]  255 	stb	,s
   0364 C6 90         [ 2]  256 	ldb	#-112
   0366 E7 E2         [ 6]  257 	stb	,-s
   0368 E6 61         [ 5]  258 	ldb	1,s
   036A BD 04 21      [ 8]  259 	jsr	__Moveto_d
   036D 32 61         [ 5]  260 	leas	1,s
   036F C6 40         [ 2]  261 	ldb	#64
   0371 D7 04         [ 4]  262 	stb	*_dp_VIA_t1_cnt_lo
   0373 8E 02 30      [ 3]  263 	ldx	#_vl_player_mid
   0376 BD F4 10      [ 8]  264 	jsr	___Draw_VLp
   0379 32 61         [ 5]  265 	leas	1,s
   037B 39            [ 5]  266 	rts
ASxxxx Assembler V05.50  (Motorola 6809)                                Page 1
Hexadecimal [16-Bits]                                 Fri May  2 18:56:42 2025

Symbol Table

    .__.$$$.       =   2710 L   |     .__.ABS.       =   0000 G
    .__.CPU.       =   0000 L   |     .__.H$L.       =   0001 L
  2 L12                0111 R   |   2 L13                0118 R
  2 L2                 00A7 R   |   2 L4                 00BA R
  2 L6                 00CF R   |   2 L7                 00DC R
  2 L8                 00FB R   |   2 L9                 00F2 R
    _Vec_Buttons       **** GX  |     __Moveto_d         **** GX
    ___Draw_VLp        **** GX  |     ___Intensity_5     **** GX
    ___Read_Btns       **** GX  |     ___Reset0Ref       **** GX
  2 _change_lane       008D GR  |     _dp_VIA_t1_cnt     **** GX
  2 _local_lu_play     0119 GR  |     _lvl_speed         **** GX
  2 _player_draw       011C GR  |   2 _player_handle     00BD GR
  3 _player_lane       0000 GR  |   2 _vl_player_lef     0085 GR
  2 _vl_player_mid     0000 GR  |   2 _vl_player_rig     0089 GR
  2 _vl_term_0_75      0084 R   |   2 _vl_term_1_84      0088 R
  2 _vl_term_2_93      008C R

ASxxxx Assembler V05.50  (Motorola 6809)                                Page 2
Hexadecimal [16-Bits]                                 Fri May  2 18:56:42 2025

Area Table

[_CSEG]
   0 _CODE            size    0   flags C080
   2 .text            size  14C   flags  100
   3 .data            size    1   flags  100
[_DSEG]
   1 _DATA            size    0   flags C0C0

