                              1 ;;; gcc for m6809 : Mar 17 2019 13:25:32
                              2 ;;; 4.3.6 (gcc6809)
                              3 ;;; ABI version 1
                              4 ;;; -mabi=bx -mint8 -fomit-frame-pointer -O2
                              5 	.module	debug.c
                              6 	.area	.text
   0000                       7 LC0:
   0000 46 49 4C 45 3A 80     8 	.byte	70,73,76,69,58,-128,0
        00
   0007                       9 LC1:
   0007 4C 49 4E 45 3A 80    10 	.byte	76,73,78,69,58,-128,0
        00
   000E                      11 LC2:
   000E 56 41 4C 55 45 3A    12 	.byte	86,65,76,85,69,58,-128,0
        80 00
                             13 	.globl	__f_debug
   0016                      14 __f_debug:
   0016 34 60         [ 7]   15 	pshs	y,u
   0018 32 E8 EE      [ 5]   16 	leas	-18,s
   001B 33 E4         [ 4]   17 	leau	,s
   001D AF 49         [ 6]   18 	stx	9,u
   001F E7 48         [ 5]   19 	stb	8,u
   0021 10 EF 46      [ 7]   20 	sts	6,u
   0024 BD`00`00      [ 8]   21 	jsr	___Clear_Sound
   0027 BE`00`00      [ 6]   22 	ldx	_Vec_Text_HW
   002A AF 4D         [ 6]   23 	stx	13,u
   002C 10 8E F8 50   [ 4]   24 	ldy	#-1968
   0030 10 BF`00`00   [ 7]   25 	sty	_Vec_Text_HW
   0034 EC C8 1A      [ 6]   26 	ldd	26,u
   0037 AE C8 1C      [ 6]   27 	ldx	28,u
   003A 31 8B         [ 8]   28 	leay	d,x
   003C E6 A2         [ 6]   29 	ldb	,-y
   003E C1 5C         [ 2]   30 	cmpb	#92	;cmpqi:
   0040 10 27 01 B0   [ 6]   31 	lbeq	L2
   0044 10 AC C8 1A   [ 8]   32 	cmpy	26,u	;cmphi:
   0048 10 27 01 A8   [ 6]   33 	lbeq	L2
   004C 8E 00 00      [ 3]   34 	ldx	#0
   004F 20 06         [ 3]   35 	bra	L26
   0051                      36 L28:
   0051 10 AC C8 1A   [ 8]   37 	cmpy	26,u	;cmphi:
   0055 27 0D         [ 3]   38 	beq	L3
   0057                      39 L26:
   0057 AF C8 10      [ 6]   40 	stx	16,u
   005A 30 01         [ 5]   41 	leax	1,x
   005C AF 44         [ 6]   42 	stx	4,u
   005E E6 A2         [ 6]   43 	ldb	,-y
   0060 C1 5C         [ 2]   44 	cmpb	#92	;cmpqi:
   0062 26 ED         [ 3]   45 	bne	L28
   0064                      46 L3:
   0064 1F 40         [ 6]   47 	tfr	s,d
   0066 A3 44         [ 7]   48 	subd	4,u	;subhi: R:d -= 4,u
   0068 1F 04         [ 6]   49 	tfr	d,s
   006A 10 EF 4B      [ 7]   50 	sts	11,u
   006D AE C8 10      [ 6]   51 	ldx	16,u
   0070 27 30         [ 3]   52 	beq	L7
   0072                      53 L6:
   0072 CC 00 00      [ 3]   54 	ldd	#0
   0075 ED 42         [ 6]   55 	std	2,u
   0077                      56 L9:
   0077 31 21         [ 5]   57 	leay	1,y
   0079 E6 A4         [ 4]   58 	ldb	,y
   007B E7 4F         [ 5]   59 	stb	15,u
   007D CB 9F         [ 2]   60 	addb	#-97
   007F C1 19         [ 2]   61 	cmpb	#25	;cmpqi:
   0081 22 06         [ 3]   62 	bhi	L8
   0083 E6 4F         [ 5]   63 	ldb	15,u
   0085 CB E0         [ 2]   64 	addb	#-32
   0087 E7 4F         [ 5]   65 	stb	15,u
   0089                      66 L8:
   0089 AE 4B         [ 6]   67 	ldx	11,u
   008B 1E 01         [ 8]   68 	exg	d,x
   008D E3 42         [ 7]   69 	addd	2,u; addhi3,3
   008F 1E 01         [ 8]   70 	exg	d,x
   0091 E6 4F         [ 5]   71 	ldb	15,u
   0093 E7 84         [ 4]   72 	stb	,x
   0095 EC 42         [ 6]   73 	ldd	2,u
   0097 C3 00 01      [ 4]   74 	addd	#1; addhi3,3
   009A ED 42         [ 6]   75 	std	2,u
   009C 10 A3 C8 10   [ 8]   76 	cmpd	16,u	;cmphi:
   00A0 25 D5         [ 3]   77 	blo	L9
   00A2                      78 L7:
   00A2 AE 4B         [ 6]   79 	ldx	11,u
   00A4 1E 01         [ 8]   80 	exg	d,x
   00A6 E3 C8 10      [ 7]   81 	addd	16,u; addhi3,3
   00A9 1E 01         [ 8]   82 	exg	d,x
   00AB C6 80         [ 2]   83 	ldb	#-128
   00AD E7 84         [ 4]   84 	stb	,x
   00AF AE 4B         [ 6]   85 	ldx	11,u
   00B1 AF 42         [ 6]   86 	stx	2,u
   00B3                      87 L22:
   00B3 BD`00`00      [ 8]   88 	jsr	___DP_to_C8
   00B6 BD`00`00      [ 8]   89 	jsr	___Wait_Recal
   00B9 BD`00`00      [ 8]   90 	jsr	___Intensity_5F
   00BC C6 88         [ 2]   91 	ldb	#-120
   00BE E7 E2         [ 6]   92 	stb	,-s
   00C0 AE 49         [ 6]   93 	ldx	9,u
   00C2 C6 5A         [ 2]   94 	ldb	#90
   00C4 BD`00`00      [ 8]   95 	jsr	_print_string
   00C7 C6 88         [ 2]   96 	ldb	#-120
   00C9 E7 E2         [ 6]   97 	stb	,-s
   00CB 8E`00`00      [ 3]   98 	ldx	#LC0
   00CE C6 32         [ 2]   99 	ldb	#50
   00D0 BD`00`00      [ 8]  100 	jsr	_print_string
   00D3 C6 88         [ 2]  101 	ldb	#-120
   00D5 E7 E2         [ 6]  102 	stb	,-s
   00D7 AE 42         [ 6]  103 	ldx	2,u
   00D9 C6 1E         [ 2]  104 	ldb	#30
   00DB BD`00`00      [ 8]  105 	jsr	_print_string
   00DE C6 88         [ 2]  106 	ldb	#-120
   00E0 E7 E2         [ 6]  107 	stb	,-s
   00E2 8E`00`07      [ 3]  108 	ldx	#LC1
   00E5 5F            [ 2]  109 	clrb
   00E6 BD`00`00      [ 8]  110 	jsr	_print_string
   00E9 C6 88         [ 2]  111 	ldb	#-120
   00EB E7 E2         [ 6]  112 	stb	,-s
   00ED AE C8 1E      [ 6]  113 	ldx	30,u
   00F0 C6 EC         [ 2]  114 	ldb	#-20
   00F2 BD`00`00      [ 8]  115 	jsr	_print_long_unsigned_int
   00F5 C6 88         [ 2]  116 	ldb	#-120
   00F7 E7 E2         [ 6]  117 	stb	,-s
   00F9 8E`00`0E      [ 3]  118 	ldx	#LC2
   00FC C6 CE         [ 2]  119 	ldb	#-50
   00FE BD`00`00      [ 8]  120 	jsr	_print_string
   0101 32 66         [ 5]  121 	leas	6,s
   0103 E6 48         [ 5]  122 	ldb	8,u
   0105 C1 09         [ 2]  123 	cmpb	#9	;cmpqi:
   0107 22 30         [ 3]  124 	bhi	L10
   0109 4F            [ 2]  125 	clra		;zero_extendqihi: R:b -> R:d
   010A ED C4         [ 5]  126 	std	,u
   010C 58            [ 2]  127 	aslb
   010D 49            [ 2]  128 	rola
   010E 1F 01         [ 6]  129 	tfr	d,x
   0110 6E 99`01`14   [10]  130 	jmp	[L21,x]
   0114                     131 L21:
   0114`01`DF               132 	.word	L11
   0116`01`B5               133 	.word	L12
   0118`01`A1               134 	.word	L13
   011A`01`8D               135 	.word	L14
   011C`01`79               136 	.word	L15
   011E`01`28               137 	.word	L18
   0120`01`52               138 	.word	L17
   0122`01`28               139 	.word	L18
   0124`01`CA               140 	.word	L19
   0126`01`66               141 	.word	L20
   0128                     142 L18:
   0128 C6 88         [ 2]  143 	ldb	#-120
   012A E7 E2         [ 6]  144 	stb	,-s
   012C 10 AE C8 18   [ 7]  145 	ldy	24,u
   0130 AE A4         [ 5]  146 	ldx	,y
   0132 CB 32         [ 2]  147 	addb	#50
   0134 BD`00`00      [ 8]  148 	jsr	_print_long_hex
   0137 32 61         [ 5]  149 	leas	1,s
   0139                     150 L10:
   0139 BD`00`00      [ 8]  151 	jsr	___Read_Btns
   013C F6`00`00      [ 5]  152 	ldb	_Vec_Buttons
   013F C5 01         [ 2]  153 	bitb	#1
   0141 10 27 FF 6E   [ 6]  154 	lbeq	L22
   0145 AE 4D         [ 6]  155 	ldx	13,u
   0147 BF`00`00      [ 6]  156 	stx	_Vec_Text_HW
   014A 10 EE 46      [ 7]  157 	lds	6,u
   014D 32 E8 12      [ 5]  158 	leas	18,s
   0150 35 E0         [ 8]  159 	puls	y,u,pc
   0152                     160 L17:
   0152 AE C8 18      [ 6]  161 	ldx	24,u
   0155 E6 84         [ 4]  162 	ldb	,x
   0157 E7 E2         [ 6]  163 	stb	,-s
   0159 C6 88         [ 2]  164 	ldb	#-120
   015B E7 E2         [ 6]  165 	stb	,-s
   015D CB 32         [ 2]  166 	addb	#50
   015F BD`00`00      [ 8]  167 	jsr	_print_hex
   0162 32 62         [ 5]  168 	leas	2,s
   0164 20 D3         [ 3]  169 	bra	L10
   0166                     170 L20:
   0166 C6 88         [ 2]  171 	ldb	#-120
   0168 E7 E2         [ 6]  172 	stb	,-s
   016A 10 AE C8 18   [ 7]  173 	ldy	24,u
   016E AE A4         [ 5]  174 	ldx	,y
   0170 CB 32         [ 2]  175 	addb	#50
   0172 BD`00`00      [ 8]  176 	jsr	_print_long_binary
   0175 32 61         [ 5]  177 	leas	1,s
   0177 20 C0         [ 3]  178 	bra	L10
   0179                     179 L15:
   0179 AE C8 18      [ 6]  180 	ldx	24,u
   017C E6 84         [ 4]  181 	ldb	,x
   017E E7 E2         [ 6]  182 	stb	,-s
   0180 C6 88         [ 2]  183 	ldb	#-120
   0182 E7 E2         [ 6]  184 	stb	,-s
   0184 CB 32         [ 2]  185 	addb	#50
   0186 BD`00`00      [ 8]  186 	jsr	_print_char
   0189 32 62         [ 5]  187 	leas	2,s
   018B 20 AC         [ 3]  188 	bra	L10
   018D                     189 L14:
   018D C6 88         [ 2]  190 	ldb	#-120
   018F E7 E2         [ 6]  191 	stb	,-s
   0191 10 AE C8 18   [ 7]  192 	ldy	24,u
   0195 AE A4         [ 5]  193 	ldx	,y
   0197 CB 32         [ 2]  194 	addb	#50
   0199 BD`00`00      [ 8]  195 	jsr	_print_long_signed_int
   019C 32 61         [ 5]  196 	leas	1,s
   019E 16 FF 98      [ 5]  197 	lbra	L10
   01A1                     198 L13:
   01A1 C6 88         [ 2]  199 	ldb	#-120
   01A3 E7 E2         [ 6]  200 	stb	,-s
   01A5 10 AE C8 18   [ 7]  201 	ldy	24,u
   01A9 AE A4         [ 5]  202 	ldx	,y
   01AB CB 32         [ 2]  203 	addb	#50
   01AD BD`00`00      [ 8]  204 	jsr	_print_long_unsigned_int
   01B0 32 61         [ 5]  205 	leas	1,s
   01B2 16 FF 84      [ 5]  206 	lbra	L10
   01B5                     207 L12:
   01B5 AE C8 18      [ 6]  208 	ldx	24,u
   01B8 E6 84         [ 4]  209 	ldb	,x
   01BA E7 E2         [ 6]  210 	stb	,-s
   01BC C6 88         [ 2]  211 	ldb	#-120
   01BE E7 E2         [ 6]  212 	stb	,-s
   01C0 CB 32         [ 2]  213 	addb	#50
   01C2 BD`00`00      [ 8]  214 	jsr	_print_signed_int
   01C5 32 62         [ 5]  215 	leas	2,s
   01C7 16 FF 6F      [ 5]  216 	lbra	L10
   01CA                     217 L19:
   01CA AE C8 18      [ 6]  218 	ldx	24,u
   01CD E6 84         [ 4]  219 	ldb	,x
   01CF E7 E2         [ 6]  220 	stb	,-s
   01D1 C6 88         [ 2]  221 	ldb	#-120
   01D3 E7 E2         [ 6]  222 	stb	,-s
   01D5 CB 32         [ 2]  223 	addb	#50
   01D7 BD`00`00      [ 8]  224 	jsr	_print_binary
   01DA 32 62         [ 5]  225 	leas	2,s
   01DC 16 FF 5A      [ 5]  226 	lbra	L10
   01DF                     227 L11:
   01DF AE C8 18      [ 6]  228 	ldx	24,u
   01E2 E6 84         [ 4]  229 	ldb	,x
   01E4 E7 E2         [ 6]  230 	stb	,-s
   01E6 C6 88         [ 2]  231 	ldb	#-120
   01E8 E7 E2         [ 6]  232 	stb	,-s
   01EA CB 32         [ 2]  233 	addb	#50
   01EC BD`00`00      [ 8]  234 	jsr	_print_unsigned_int
   01EF 32 62         [ 5]  235 	leas	2,s
   01F1 16 FF 45      [ 5]  236 	lbra	L10
   01F4                     237 L2:
   01F4 10 EF 4B      [ 7]  238 	sts	11,u
   01F7 8E FF FF      [ 3]  239 	ldx	#-1
   01FA AF C8 10      [ 6]  240 	stx	16,u
   01FD 16 FE 72      [ 5]  241 	lbra	L6
ASxxxx Assembler V05.50  (Motorola 6809)                                Page 1
Hexadecimal [16-Bits]                                 Fri May  2 23:13:12 2025

Symbol Table

    .__.$$$.       =   2710 L   |     .__.ABS.       =   0000 G
    .__.CPU.       =   0000 L   |     .__.H$L.       =   0001 L
  2 L10                0139 R   |   2 L11                01DF R
  2 L12                01B5 R   |   2 L13                01A1 R
  2 L14                018D R   |   2 L15                0179 R
  2 L17                0152 R   |   2 L18                0128 R
  2 L19                01CA R   |   2 L2                 01F4 R
  2 L20                0166 R   |   2 L21                0114 R
  2 L22                00B3 R   |   2 L26                0057 R
  2 L28                0051 R   |   2 L3                 0064 R
  2 L6                 0072 R   |   2 L7                 00A2 R
  2 L8                 0089 R   |   2 L9                 0077 R
  2 LC0                0000 R   |   2 LC1                0007 R
  2 LC2                000E R   |     _Vec_Buttons       **** GX
    _Vec_Text_HW       **** GX  |     ___Clear_Sound     **** GX
    ___DP_to_C8        **** GX  |     ___Intensity_5     **** GX
    ___Read_Btns       **** GX  |     ___Wait_Recal      **** GX
  2 __f_debug          0016 GR  |     _print_binary      **** GX
    _print_char        **** GX  |     _print_hex         **** GX
    _print_long_bi     **** GX  |     _print_long_he     **** GX
    _print_long_si     **** GX  |     _print_long_un     **** GX
    _print_signed_     **** GX  |     _print_string      **** GX
    _print_unsigne     **** GX

ASxxxx Assembler V05.50  (Motorola 6809)                                Page 2
Hexadecimal [16-Bits]                                 Fri May  2 23:13:12 2025

Area Table

[_CSEG]
   0 _CODE            size    0   flags C080
   2 .text            size  200   flags  100
[_DSEG]
   1 _DATA            size    0   flags C0C0

